target datalayout = "e-m:e-p270:32:32-p271:32:32-p272:64:64-i64:64-i128:128-f80:128-n8:16:32:64-S128"
target triple = "x86_64-pc-linux-gnu"

%struct.slurm_conf_t = type { i64, ptr, i16, ptr, ptr, ptr, ptr, ptr, i16, ptr, ptr, ptr, ptr, ptr, ptr, ptr, i16, ptr, ptr, ptr, ptr, i16, ptr, ptr, ptr, i64, ptr, ptr, ptr, ptr, i16, ptr, ptr, i16, i32, ptr, i32, ptr, i32, i32, ptr, ptr, i64, i64, ptr, i16, i16, ptr, i32, i32, ptr, i32, ptr, i32, i16, i16, i16, ptr, i16, i16, ptr, ptr, i32, i16, i16, ptr, i32, i16, ptr, ptr, ptr, ptr, i16, ptr, ptr, ptr, ptr, i32, ptr, ptr, ptr, ptr, i16, i16, ptr, i32, i32, i32, i16, i16, ptr, ptr, i16, ptr, ptr, i32, i32, i32, i32, i32, i64, i32, i32, i16, ptr, ptr, i32, ptr, ptr, ptr, i16, i32, ptr, ptr, i16, ptr, ptr, i32, i16, ptr, ptr, ptr, ptr, i32, i32, i16, i16, i32, ptr, i16, ptr, i32, i32, i32, i32, i32, i32, ptr, i16, ptr, ptr, i32, i16, ptr, i32, i16, i16, ptr, ptr, ptr, i16, ptr, ptr, ptr, ptr, i16, i16, ptr, i16, ptr, i16, ptr, i16, ptr, i16, ptr, ptr, ptr, ptr, i16, ptr, ptr, ptr, i32, ptr, i32, ptr, ptr, i16, ptr, ptr, i32, i16, ptr, ptr, i16, i16, ptr, i16, ptr, ptr, ptr, i32, ptr, i16, i16, ptr, ptr, ptr, ptr, ptr, ptr, ptr, ptr, i16, i32, i16, ptr, ptr, ptr, ptr, i32, ptr, ptr, ptr, i16, ptr, ptr, ptr, i16, ptr, i16, ptr, i16, i16, ptr }
%struct.statfs = type { i64, i64, i64, i64, i64, i64, i64, %struct.__fsid_t, i64, i64, i64, [4 x i64] }
%struct.__fsid_t = type { [2 x i32] }

@.str = private unnamed_addr constant [16 x i8] c"/sys/fs/cgroup/\00", align 1
@.str.1 = private unnamed_addr constant [49 x i8] c"cgroup filesystem not mounted in /sys/fs/cgroup/\00", align 1
@.str.2 = private unnamed_addr constant [24 x i8] c"/sys/fs/cgroup/systemd/\00", align 1
@.str.3 = private unnamed_addr constant [39 x i8] c"can't stat /sys/fs/cgroup/systemd/: %m\00", align 1
@.str.4 = private unnamed_addr constant [24 x i8] c"/sys/fs/cgroup/unified/\00", align 1
@.str.5 = private unnamed_addr constant [39 x i8] c"can't stat /sys/fs/cgroup/unified/: %m\00", align 1
@.str.6 = private unnamed_addr constant [45 x i8] c"Unexpected fs type on /sys/fs/cgroup/systemd\00", align 1
@.str.7 = private unnamed_addr constant [40 x i8] c"No filesystem mounted on /sys/fs/cgroup\00", align 1
@.str.8 = private unnamed_addr constant [50 x i8] c"Unknown filesystem type mounted on /sys/fs/cgroup\00", align 1
@slurm_conf = external global %struct.slurm_conf_t, align 8
@.str.9 = private unnamed_addr constant [36 x i8] c"CGROUP: %s: using cgroup version %d\00", align 1
@__func__.autodetect_cgroup_version = private unnamed_addr constant [26 x i8] c"autodetect_cgroup_version\00", align 1
@.str.10 = private unnamed_addr constant [10 x i8] c"cgroup/v1\00", align 1
@.str.11 = private unnamed_addr constant [10 x i8] c"cgroup/v2\00", align 1
@.str.12 = private unnamed_addr constant [30 x i8] c"unsupported cgroup version %d\00", align 1

; Function Attrs: nounwind uwtable
define dso_local ptr @autodetect_cgroup_version() #0 {
  %1 = alloca ptr, align 8
  %2 = alloca %struct.statfs, align 8
  %3 = alloca i32, align 4
  %4 = alloca i32, align 4
  call void @llvm.lifetime.start.p0(i64 120, ptr %2) #9
  call void @llvm.lifetime.start.p0(i64 4, ptr %3) #9
  store i32 -1, ptr %3, align 4
  %5 = call i32 @statfs(ptr noundef @.str, ptr noundef %2) #9
  %6 = icmp slt i32 %5, 0
  br i1 %6, label %7, label %9

7:                                                ; preds = %0
  %8 = call i32 (ptr, ...) @error(ptr noundef @.str.1)
  store ptr null, ptr %1, align 8
  store i32 1, ptr %4, align 4
  br label %75

9:                                                ; preds = %0
  %10 = getelementptr inbounds nuw %struct.statfs, ptr %2, i32 0, i32 0
  %11 = load i64, ptr %10, align 8
  %12 = icmp eq i64 %11, 1667723888
  br i1 %12, label %13, label %14

13:                                               ; preds = %9
  store i32 2, ptr %3, align 4
  br label %51

14:                                               ; preds = %9
  %15 = getelementptr inbounds nuw %struct.statfs, ptr %2, i32 0, i32 0
  %16 = load i64, ptr %15, align 8
  %17 = icmp eq i64 %16, 16914836
  br i1 %17, label %18, label %42

18:                                               ; preds = %14
  %19 = call i32 @statfs(ptr noundef @.str.2, ptr noundef %2) #9
  %20 = icmp ne i32 %19, 0
  br i1 %20, label %21, label %23

21:                                               ; preds = %18
  %22 = call i32 (ptr, ...) @error(ptr noundef @.str.3)
  store ptr null, ptr %1, align 8
  store i32 1, ptr %4, align 4
  br label %75

23:                                               ; preds = %18
  %24 = getelementptr inbounds nuw %struct.statfs, ptr %2, i32 0, i32 0
  %25 = load i64, ptr %24, align 8
  %26 = icmp eq i64 %25, 1667723888
  br i1 %26, label %27, label %33

27:                                               ; preds = %23
  %28 = call i32 @statfs(ptr noundef @.str.4, ptr noundef %2) #9
  %29 = icmp ne i32 %28, 0
  br i1 %29, label %30, label %32

30:                                               ; preds = %27
  %31 = call i32 (ptr, ...) @error(ptr noundef @.str.5)
  store ptr null, ptr %1, align 8
  store i32 1, ptr %4, align 4
  br label %75

32:                                               ; preds = %27
  store i32 2, ptr %3, align 4
  br label %41

33:                                               ; preds = %23
  %34 = getelementptr inbounds nuw %struct.statfs, ptr %2, i32 0, i32 0
  %35 = load i64, ptr %34, align 8
  %36 = icmp eq i64 %35, 2613483
  br i1 %36, label %37, label %38

37:                                               ; preds = %33
  store i32 1, ptr %3, align 4
  br label %40

38:                                               ; preds = %33
  %39 = call i32 (ptr, ...) @error(ptr noundef @.str.6)
  store ptr null, ptr %1, align 8
  store i32 1, ptr %4, align 4
  br label %75

40:                                               ; preds = %37
  br label %41

41:                                               ; preds = %40, %32
  br label %50

42:                                               ; preds = %14
  %43 = getelementptr inbounds nuw %struct.statfs, ptr %2, i32 0, i32 0
  %44 = load i64, ptr %43, align 8
  %45 = icmp eq i64 %44, 1650812274
  br i1 %45, label %46, label %48

46:                                               ; preds = %42
  %47 = call i32 (ptr, ...) @error(ptr noundef @.str.7)
  store ptr null, ptr %1, align 8
  store i32 1, ptr %4, align 4
  br label %75

48:                                               ; preds = %42
  %49 = call i32 (ptr, ...) @error(ptr noundef @.str.8)
  store ptr null, ptr %1, align 8
  store i32 1, ptr %4, align 4
  br label %75

50:                                               ; preds = %41
  br label %51

51:                                               ; preds = %50, %13
  br label %52

52:                                               ; preds = %51
  %53 = load i64, ptr getelementptr inbounds nuw (%struct.slurm_conf_t, ptr @slurm_conf, i32 0, i32 42), align 8
  %54 = and i64 %53, 36028797018963968
  %55 = icmp ne i64 %54, 0
  br i1 %55, label %56, label %65

56:                                               ; preds = %52
  br label %57

57:                                               ; preds = %56
  %58 = call i32 @get_log_level()
  %59 = icmp sge i32 %58, 4
  br i1 %59, label %60, label %62

60:                                               ; preds = %57
  %61 = load i32, ptr %3, align 4
  call void (i32, ptr, ...) @log_var(i32 noundef 4, ptr noundef @.str.9, ptr noundef @__func__.autodetect_cgroup_version, i32 noundef %61)
  br label %62

62:                                               ; preds = %60, %57
  br label %63

63:                                               ; preds = %62
  br label %64

64:                                               ; preds = %63
  br label %65

65:                                               ; preds = %64, %52
  br label %66

66:                                               ; preds = %65
  br label %67

67:                                               ; preds = %66
  %68 = load i32, ptr %3, align 4
  switch i32 %68, label %71 [
    i32 1, label %69
    i32 2, label %70
  ]

69:                                               ; preds = %67
  store ptr @.str.10, ptr %1, align 8
  store i32 1, ptr %4, align 4
  br label %75

70:                                               ; preds = %67
  store ptr @.str.11, ptr %1, align 8
  store i32 1, ptr %4, align 4
  br label %75

71:                                               ; preds = %67
  %72 = load i32, ptr %3, align 4
  %73 = call i32 (ptr, ...) @error(ptr noundef @.str.12, i32 noundef %72)
  br label %74

74:                                               ; preds = %71
  store ptr null, ptr %1, align 8
  store i32 1, ptr %4, align 4
  br label %75

75:                                               ; preds = %74, %70, %69, %48, %46, %38, %30, %21, %7
  call void @llvm.lifetime.end.p0(i64 4, ptr %3) #9
  call void @llvm.lifetime.end.p0(i64 120, ptr %2) #9
  %76 = load ptr, ptr %1, align 8
  ret ptr %76
}