; Function Attrs: nounwind uwtable
define dso_local noundef ptr @autodetect_cgroup_version() #0 {
  %1 = alloca %struct.statfs, align 8
  call void @llvm.lifetime.start.p0(i64 120, ptr nonnull %1) #12
  %2 = call i32 @statfs(ptr noundef nonnull @.str, ptr noundef nonnull %1) #12
  %3 = icmp slt i32 %2, 0
  br i1 %3, label %4, label %6

4:                                                ; preds = %0
  %5 = call i32 (ptr, ...) @error(ptr noundef nonnull @.str.1) #12
  br label %31

6:                                                ; preds = %0
  %7 = load i64, ptr %1, align 8
  switch i64 %7, label %22 [
    i64 1667723888, label %24
    i64 16914836, label %8
    i64 1650812274, label %20
  ]

8:                                                ; preds = %6
  %9 = call i32 @statfs(ptr noundef nonnull @.str.2, ptr noundef nonnull %1) #12
  %.not = icmp eq i32 %9, 0
  br i1 %.not, label %12, label %10

10:                                               ; preds = %8
  %11 = call i32 (ptr, ...) @error(ptr noundef nonnull @.str.3) #12
  br label %31

12:                                               ; preds = %8
  %13 = load i64, ptr %1, align 8
  switch i64 %13, label %18 [
    i64 1667723888, label %14
    i64 2613483, label %24
  ]

14:                                               ; preds = %12
  %15 = call i32 @statfs(ptr noundef nonnull @.str.4, ptr noundef nonnull %1) #12
  %.not6 = icmp eq i32 %15, 0
  br i1 %.not6, label %24, label %16

16:                                               ; preds = %14
  %17 = call i32 (ptr, ...) @error(ptr noundef nonnull @.str.5) #12
  br label %31

18:                                               ; preds = %12
  %19 = call i32 (ptr, ...) @error(ptr noundef nonnull @.str.6) #12
  br label %31

20:                                               ; preds = %6
  %21 = call i32 (ptr, ...) @error(ptr noundef nonnull @.str.7) #12
  br label %31

22:                                               ; preds = %6
  %23 = call i32 (ptr, ...) @error(ptr noundef nonnull @.str.8) #12
  br label %31

24:                                               ; preds = %6, %12, %14
  %switch = phi ptr [ @.str.11, %6 ], [ @.str.11, %14 ], [ @.str.10, %12 ]
  %.0 = phi i32 [ 2, %6 ], [ 2, %14 ], [ 1, %12 ]
  %25 = load i64, ptr getelementptr inbounds nuw (i8, ptr @slurm_conf, i64 320), align 8
  %26 = and i64 %25, 36028797018963968
  %.not7 = icmp eq i64 %26, 0
  br i1 %.not7, label %31, label %27

27:                                               ; preds = %24
  %28 = call i32 @get_log_level() #12
  %29 = icmp sgt i32 %28, 3
  br i1 %29, label %30, label %31

30:                                               ; preds = %27
  call void (i32, ptr, ...) @log_var(i32 noundef 4, ptr noundef nonnull @.str.9, ptr noundef nonnull @__func__.autodetect_cgroup_version, i32 noundef %.0) #12
  br label %31

31:                                               ; preds = %24, %30, %27, %22, %20, %18, %16, %10, %4
  %.03 = phi ptr [ null, %4 ], [ null, %10 ], [ null, %16 ], [ null, %18 ], [ null, %20 ], [ null, %22 ], [ %switch, %27 ], [ %switch, %30 ], [ %switch, %24 ]
  call void @llvm.lifetime.end.p0(i64 120, ptr nonnull %1) #12
  ret ptr %.03
}